target datalayout = "e-m:e-p270:32:32-p271:32:32-p272:64:64-i64:64-i128:128-f80:128-n8:16:32:64-S128"
target triple = "x86_64-pc-linux-gnu"

%struct.RBTree = type { ptr, i64, ptr, ptr, ptr, ptr, ptr }
%struct.RBTNode = type { i8, ptr, ptr, ptr }

@sentinel = internal global { i8, [7 x i8], ptr, ptr, ptr } { i8 0, [7 x i8] zeroinitializer, ptr @sentinel, ptr @sentinel, ptr null }, align 8

; Function Attrs: nounwind uwtable
define dso_local ptr @rbt_find_great(ptr noundef %0, ptr noundef %1, i1 noundef zeroext %2) #0 {
  %4 = alloca ptr, align 8
  %5 = alloca ptr, align 8
  %6 = alloca ptr, align 8
  %7 = alloca i8, align 1
  %8 = alloca ptr, align 8
  %9 = alloca ptr, align 8
  %10 = alloca i32, align 4
  %11 = alloca i32, align 4
  store ptr %0, ptr %5, align 8
  store ptr %1, ptr %6, align 8
  %12 = zext i1 %2 to i8
  store i8 %12, ptr %7, align 1
  call void @llvm.lifetime.start.p0(i64 8, ptr %8) #6
  %13 = load ptr, ptr %5, align 8
  %14 = getelementptr inbounds nuw %struct.RBTree, ptr %13, i32 0, i32 0
  %15 = load ptr, ptr %14, align 8
  store ptr %15, ptr %8, align 8
  call void @llvm.lifetime.start.p0(i64 8, ptr %9) #6
  store ptr null, ptr %9, align 8
  br label %16

16:                                               ; preds = %52, %3
  %17 = load ptr, ptr %8, align 8
  %18 = icmp ne ptr %17, @sentinel
  br i1 %18, label %19, label %53

19:                                               ; preds = %16
  call void @llvm.lifetime.start.p0(i64 4, ptr %10) #6
  %20 = load ptr, ptr %5, align 8
  %21 = getelementptr inbounds nuw %struct.RBTree, ptr %20, i32 0, i32 2
  %22 = load ptr, ptr %21, align 8
  %23 = load ptr, ptr %6, align 8
  %24 = load ptr, ptr %8, align 8
  %25 = load ptr, ptr %5, align 8
  %26 = getelementptr inbounds nuw %struct.RBTree, ptr %25, i32 0, i32 6
  %27 = load ptr, ptr %26, align 8
  %28 = call i32 %22(ptr noundef %23, ptr noundef %24, ptr noundef %27)
  store i32 %28, ptr %10, align 4
  %29 = load i8, ptr %7, align 1, !range !6, !noundef !7
  %30 = trunc i8 %29 to i1
  br i1 %30, label %31, label %36

31:                                               ; preds = %19
  %32 = load i32, ptr %10, align 4
  %33 = icmp eq i32 %32, 0
  br i1 %33, label %34, label %36

34:                                               ; preds = %31
  %35 = load ptr, ptr %8, align 8
  store ptr %35, ptr %4, align 8
  store i32 1, ptr %11, align 4
  br label %50

36:                                               ; preds = %31, %19
  %37 = load i32, ptr %10, align 4
  %38 = icmp slt i32 %37, 0
  br i1 %38, label %39, label %44

39:                                               ; preds = %36
  %40 = load ptr, ptr %8, align 8
  store ptr %40, ptr %9, align 8
  %41 = load ptr, ptr %8, align 8
  %42 = getelementptr inbounds nuw %struct.RBTNode, ptr %41, i32 0, i32 1
  %43 = load ptr, ptr %42, align 8
  store ptr %43, ptr %8, align 8
  br label %48

44:                                               ; preds = %36
  %45 = load ptr, ptr %8, align 8
  %46 = getelementptr inbounds nuw %struct.RBTNode, ptr %45, i32 0, i32 2
  %47 = load ptr, ptr %46, align 8
  store ptr %47, ptr %8, align 8
  br label %48

48:                                               ; preds = %44, %39
  br label %49

49:                                               ; preds = %48
  store i32 0, ptr %11, align 4
  br label %50

50:                                               ; preds = %49, %34
  call void @llvm.lifetime.end.p0(i64 4, ptr %10) #6
  %51 = load i32, ptr %11, align 4
  switch i32 %51, label %55 [
    i32 0, label %52
  ]

52:                                               ; preds = %50
  br label %16, !llvm.loop !8

53:                                               ; preds = %16
  %54 = load ptr, ptr %9, align 8
  store ptr %54, ptr %4, align 8
  store i32 1, ptr %11, align 4
  br label %55

55:                                               ; preds = %53, %50
  call void @llvm.lifetime.end.p0(i64 8, ptr %9) #6
  call void @llvm.lifetime.end.p0(i64 8, ptr %8) #6
  %56 = load ptr, ptr %4, align 8
  ret ptr %56
}